; Function Attrs: mustprogress nofree nounwind willreturn memory(read) uwtable
define dso_local i32 @_ZNK5clang21CXXFunctionalCastExpr9getEndLocEv(ptr noundef nonnull readonly align 8 captures(none) dereferenceable(40) %0) local_unnamed_addr #6 align 2 {
  %2 = getelementptr inbounds nuw i8, ptr %0, i64 36
  %3 = load i32, ptr %2, align 4
  %.not = icmp eq i32 %3, 0
  br i1 %.not, label %4, label %8

4:                                                ; preds = %1
  %5 = getelementptr inbounds nuw i8, ptr %0, i64 16
  %6 = load ptr, ptr %5, align 8
  %7 = tail call i32 @_ZNK5clang4Stmt9getEndLocEv(ptr noundef nonnull align 8 dereferenceable(8) %6) #15
  br label %8

8:                                                ; preds = %1, %4
  %.sroa.0.0 = phi i32 [ %7, %4 ], [ %3, %1 ]
  ret i32 %.sroa.0.0
}